target datalayout = "e-m:e-p270:32:32-p271:32:32-p272:64:64-i64:64-i128:128-f80:128-n8:16:32:64-S128"
target triple = "x86_64-pc-linux-gnu"

%struct._zend_ast = type { i16, i16, i32, [1 x ptr] }
%struct._zend_ast_list = type { i16, i16, i32, i32, [1 x ptr] }

; Function Attrs: nounwind uwtable
define internal i64 @zend_ast_list_size(i32 noundef %0) #0 {
  %2 = alloca i32, align 4
  store i32 %0, ptr %2, align 4
  %3 = load i32, ptr %2, align 4
  %4 = zext i32 %3 to i64
  %5 = mul i64 8, %4
  %6 = add i64 16, %5
  ret i64 %6
}

; Function Attrs: nounwind uwtable
define internal i64 @zend_ast_tree_size(ptr noundef %0) #0 {
  %2 = alloca ptr, align 8
  %3 = alloca ptr, align 8
  %4 = alloca ptr, align 8
  %5 = alloca i32, align 4
  %6 = alloca ptr, align 8
  %7 = alloca i64, align 8
  %8 = alloca i32, align 4
  %9 = alloca ptr, align 8
  %10 = alloca i32, align 4
  %11 = alloca i32, align 4
  store ptr %0, ptr %6, align 8
  %12 = load ptr, ptr %6, align 8
  %13 = getelementptr inbounds %struct._zend_ast, ptr %12, i32 0, i32 0
  %14 = load i16, ptr %13, align 8
  %15 = zext i16 %14 to i32
  %16 = icmp eq i32 %15, 64
  br i1 %16, label %23, label %17

17:                                               ; preds = %1
  %18 = load ptr, ptr %6, align 8
  %19 = getelementptr inbounds %struct._zend_ast, ptr %18, i32 0, i32 0
  %20 = load i16, ptr %19, align 8
  %21 = zext i16 %20 to i32
  %22 = icmp eq i32 %21, 65
  br i1 %22, label %23, label %24

23:                                               ; preds = %17, %1
  store i64 24, ptr %7, align 8
  br label %107

24:                                               ; preds = %17
  %25 = load ptr, ptr %6, align 8
  store ptr %25, ptr %2, align 8
  %26 = load ptr, ptr %2, align 8
  %27 = load i16, ptr %26, align 8
  %28 = zext i16 %27 to i32
  %29 = ashr i32 %28, 7
  %30 = and i32 %29, 1
  %31 = icmp ne i32 %30, 0
  br i1 %31, label %32, label %68

32:                                               ; preds = %24
  %33 = load ptr, ptr %6, align 8
  store ptr %33, ptr %4, align 8
  %34 = load ptr, ptr %4, align 8
  store ptr %34, ptr %9, align 8
  %35 = load ptr, ptr %9, align 8
  %36 = getelementptr inbounds %struct._zend_ast_list, ptr %35, i32 0, i32 3
  %37 = load i32, ptr %36, align 8
  %38 = call i64 @zend_ast_list_size(i32 noundef %37)
  store i64 %38, ptr %7, align 8
  store i32 0, ptr %8, align 4
  br label %39

39:                                               ; preds = %64, %32
  %40 = load i32, ptr %8, align 4
  %41 = load ptr, ptr %9, align 8
  %42 = getelementptr inbounds %struct._zend_ast_list, ptr %41, i32 0, i32 3
  %43 = load i32, ptr %42, align 8
  %44 = icmp ult i32 %40, %43
  br i1 %44, label %45, label %67

45:                                               ; preds = %39
  %46 = load ptr, ptr %9, align 8
  %47 = getelementptr inbounds %struct._zend_ast_list, ptr %46, i32 0, i32 4
  %48 = load i32, ptr %8, align 4
  %49 = zext i32 %48 to i64
  %50 = getelementptr inbounds [1 x ptr], ptr %47, i64 0, i64 %49
  %51 = load ptr, ptr %50, align 8
  %52 = icmp ne ptr %51, null
  br i1 %52, label %53, label %63

53:                                               ; preds = %45
  %54 = load ptr, ptr %9, align 8
  %55 = getelementptr inbounds %struct._zend_ast_list, ptr %54, i32 0, i32 4
  %56 = load i32, ptr %8, align 4
  %57 = zext i32 %56 to i64
  %58 = getelementptr inbounds [1 x ptr], ptr %55, i64 0, i64 %57
  %59 = load ptr, ptr %58, align 8
  %60 = call i64 @zend_ast_tree_size(ptr noundef %59)
  %61 = load i64, ptr %7, align 8
  %62 = add i64 %61, %60
  store i64 %62, ptr %7, align 8
  br label %63

63:                                               ; preds = %53, %45
  br label %64

64:                                               ; preds = %63
  %65 = load i32, ptr %8, align 4
  %66 = add i32 %65, 1
  store i32 %66, ptr %8, align 4
  br label %39

67:                                               ; preds = %39
  br label %106

68:                                               ; preds = %24
  %69 = load ptr, ptr %6, align 8
  store ptr %69, ptr %3, align 8
  %70 = load ptr, ptr %3, align 8
  %71 = load i16, ptr %70, align 8
  %72 = zext i16 %71 to i32
  %73 = ashr i32 %72, 8
  store i32 %73, ptr %11, align 4
  %74 = load i32, ptr %11, align 4
  store i32 %74, ptr %5, align 4
  %75 = load i32, ptr %5, align 4
  %76 = zext i32 %75 to i64
  %77 = mul i64 8, %76
  %78 = add i64 8, %77
  store i64 %78, ptr %7, align 8
  store i32 0, ptr %10, align 4
  br label %79

79:                                               ; preds = %102, %68
  %80 = load i32, ptr %10, align 4
  %81 = load i32, ptr %11, align 4
  %82 = icmp ult i32 %80, %81
  br i1 %82, label %83, label %105

83:                                               ; preds = %79
  %84 = load ptr, ptr %6, align 8
  %85 = getelementptr inbounds %struct._zend_ast, ptr %84, i32 0, i32 3
  %86 = load i32, ptr %10, align 4
  %87 = zext i32 %86 to i64
  %88 = getelementptr inbounds [1 x ptr], ptr %85, i64 0, i64 %87
  %89 = load ptr, ptr %88, align 8
  %90 = icmp ne ptr %89, null
  br i1 %90, label %91, label %101

91:                                               ; preds = %83
  %92 = load ptr, ptr %6, align 8
  %93 = getelementptr inbounds %struct._zend_ast, ptr %92, i32 0, i32 3
  %94 = load i32, ptr %10, align 4
  %95 = zext i32 %94 to i64
  %96 = getelementptr inbounds [1 x ptr], ptr %93, i64 0, i64 %95
  %97 = load ptr, ptr %96, align 8
  %98 = call i64 @zend_ast_tree_size(ptr noundef %97)
  %99 = load i64, ptr %7, align 8
  %100 = add i64 %99, %98
  store i64 %100, ptr %7, align 8
  br label %101

101:                                              ; preds = %91, %83
  br label %102

102:                                              ; preds = %101
  %103 = load i32, ptr %10, align 4
  %104 = add i32 %103, 1
  store i32 %104, ptr %10, align 4
  br label %79

105:                                              ; preds = %79
  br label %106

106:                                              ; preds = %105, %67
  br label %107

107:                                              ; preds = %106, %23
  %108 = load i64, ptr %7, align 8
  ret i64 %108
}