; Function Attrs: nofree nosync nounwind memory(read, inaccessiblemem: none) uwtable
define internal fastcc i64 @zend_ast_tree_size(ptr nocapture noundef readonly %0) unnamed_addr #7 {
  %2 = load i16, ptr %0, align 8
  %3 = zext i16 %2 to i32
  %4 = and i16 %2, -2
  %switch = icmp eq i16 %4, 64
  br i1 %switch, label %.loopexit, label %5

5:                                                ; preds = %1
  %6 = and i32 %3, 128
  %.not = icmp eq i32 %6, 0
  br i1 %.not, label %21, label %7

7:                                                ; preds = %5
  %8 = getelementptr inbounds i8, ptr %0, i64 8
  %9 = load i32, ptr %8, align 8
  %10 = zext i32 %9 to i64
  %11 = shl nuw nsw i64 %10, 3
  %12 = add nuw nsw i64 %11, 16
  %.not41 = icmp eq i32 %9, 0
  br i1 %.not41, label %.loopexit, label %.lr.ph

.lr.ph:                                           ; preds = %7
  %13 = getelementptr inbounds i8, ptr %0, i64 16
  br label %14

14:                                               ; preds = %.lr.ph, %20
  %indvars.iv = phi i64 [ 0, %.lr.ph ], [ %indvars.iv.next, %20 ]
  %.036 = phi i64 [ %12, %.lr.ph ], [ %.1, %20 ]
  %15 = getelementptr inbounds [1 x ptr], ptr %13, i64 0, i64 %indvars.iv
  %16 = load ptr, ptr %15, align 8
  %.not33 = icmp eq ptr %16, null
  br i1 %.not33, label %20, label %17

17:                                               ; preds = %14
  %18 = tail call fastcc i64 @zend_ast_tree_size(ptr noundef nonnull %16)
  %19 = add i64 %18, %.036
  br label %20

20:                                               ; preds = %14, %17
  %.1 = phi i64 [ %19, %17 ], [ %.036, %14 ]
  %indvars.iv.next = add nuw nsw i64 %indvars.iv, 1
  %exitcond.not = icmp eq i64 %indvars.iv.next, %10
  br i1 %exitcond.not, label %.loopexit, label %14

21:                                               ; preds = %5
  %22 = lshr i32 %3, 8
  %23 = shl nuw nsw i32 %22, 3
  %narrow = add nuw nsw i32 %23, 8
  %24 = zext nneg i32 %narrow to i64
  %.not42 = icmp ult i16 %2, 256
  br i1 %.not42, label %.loopexit, label %.lr.ph39

.lr.ph39:                                         ; preds = %21
  %25 = getelementptr inbounds i8, ptr %0, i64 8
  %wide.trip.count48 = zext nneg i32 %22 to i64
  br label %26

26:                                               ; preds = %.lr.ph39, %32
  %indvars.iv45 = phi i64 [ 0, %.lr.ph39 ], [ %indvars.iv.next46, %32 ]
  %.238 = phi i64 [ %24, %.lr.ph39 ], [ %.3, %32 ]
  %27 = getelementptr inbounds [1 x ptr], ptr %25, i64 0, i64 %indvars.iv45
  %28 = load ptr, ptr %27, align 8
  %.not32 = icmp eq ptr %28, null
  br i1 %.not32, label %32, label %29

29:                                               ; preds = %26
  %30 = tail call fastcc i64 @zend_ast_tree_size(ptr noundef nonnull %28)
  %31 = add i64 %30, %.238
  br label %32

32:                                               ; preds = %26, %29
  %.3 = phi i64 [ %31, %29 ], [ %.238, %26 ]
  %indvars.iv.next46 = add nuw nsw i64 %indvars.iv45, 1
  %exitcond49.not = icmp eq i64 %indvars.iv.next46, %wide.trip.count48
  br i1 %exitcond49.not, label %.loopexit, label %26

.loopexit:                                        ; preds = %20, %32, %7, %21, %1
  %.4 = phi i64 [ 24, %1 ], [ %24, %21 ], [ %12, %7 ], [ %.3, %32 ], [ %.1, %20 ]
  ret i64 %.4
}